target datalayout = "e-m:e-p270:32:32-p271:32:32-p272:64:64-i64:64-i128:128-f80:128-n8:16:32:64-S128"
target triple = "x86_64-pc-linux-gnu"

%struct.pmix_list_t = type { %struct.pmix_object_t, %struct.pmix_list_item_t, i64 }
%struct.pmix_object_t = type { %union.pthread_mutex_t, ptr, i32, %struct.pmix_tma }
%union.pthread_mutex_t = type { %struct.__pthread_mutex_s }
%struct.__pthread_mutex_s = type { i32, i32, i32, i32, i32, i16, i16, %struct.__pthread_internal_list }
%struct.__pthread_internal_list = type { ptr, ptr }
%struct.pmix_tma = type { ptr, ptr, ptr, ptr, ptr, ptr, ptr, ptr }
%struct.pmix_list_item_t = type { %struct.pmix_object_t, ptr, ptr, i32 }
%struct.pmix_nodeinfo_t = type { %struct.pmix_list_item_t, i32, ptr, ptr, %struct.pmix_list_t }

; Function Attrs: nounwind uwtable
define ptr @pmix_gds_hash_check_nodename(ptr noundef %0, ptr noundef %1) #0 {
  %3 = alloca ptr, align 8
  %4 = alloca ptr, align 8
  %5 = alloca ptr, align 8
  %6 = alloca i32, align 4
  %7 = alloca ptr, align 8
  %8 = alloca i8, align 1
  %9 = alloca i32, align 4
  store ptr %0, ptr %4, align 8, !tbaa !78
  store ptr %1, ptr %5, align 8, !tbaa !3
  call void @llvm.lifetime.start.p0(i64 4, ptr %6) #11
  call void @llvm.lifetime.start.p0(i64 8, ptr %7) #11
  call void @llvm.lifetime.start.p0(i64 1, ptr %8) #11
  store i8 0, ptr %8, align 1, !tbaa !8
  %10 = load ptr, ptr %5, align 8, !tbaa !3
  %11 = icmp eq ptr null, %10
  br i1 %11, label %12, label %13

12:                                               ; preds = %2
  store ptr null, ptr %3, align 8
  store i32 1, ptr %9, align 4
  br label %96

13:                                               ; preds = %2
  %14 = load ptr, ptr %4, align 8, !tbaa !78
  %15 = getelementptr inbounds nuw %struct.pmix_list_t, ptr %14, i32 0, i32 1
  %16 = getelementptr inbounds nuw %struct.pmix_list_item_t, ptr %15, i32 0, i32 1
  %17 = load ptr, ptr %16, align 8, !tbaa !98
  store ptr %17, ptr %7, align 8, !tbaa !10
  br label %18

18:                                               ; preds = %39, %13
  %19 = load ptr, ptr %7, align 8, !tbaa !10
  %20 = load ptr, ptr %4, align 8, !tbaa !78
  %21 = getelementptr inbounds nuw %struct.pmix_list_t, ptr %20, i32 0, i32 1
  %22 = icmp ne ptr %19, %21
  br i1 %22, label %23, label %43

23:                                               ; preds = %18
  %24 = load ptr, ptr %7, align 8, !tbaa !10
  %25 = getelementptr inbounds nuw %struct.pmix_nodeinfo_t, ptr %24, i32 0, i32 2
  %26 = load ptr, ptr %25, align 8, !tbaa !86
  %27 = load ptr, ptr %5, align 8, !tbaa !3
  %28 = call i32 @strcmp(ptr noundef %26, ptr noundef %27) #12
  %29 = icmp eq i32 0, %28
  br i1 %29, label %30, label %32

30:                                               ; preds = %23
  %31 = load ptr, ptr %7, align 8, !tbaa !10
  store ptr %31, ptr %3, align 8
  store i32 1, ptr %9, align 4
  br label %96

32:                                               ; preds = %23
  %33 = load ptr, ptr %7, align 8, !tbaa !10
  %34 = getelementptr inbounds nuw %struct.pmix_nodeinfo_t, ptr %33, i32 0, i32 3
  %35 = load ptr, ptr %34, align 8, !tbaa !87
  %36 = icmp ne ptr null, %35
  br i1 %36, label %37, label %38

37:                                               ; preds = %32
  store i8 1, ptr %8, align 1, !tbaa !8
  br label %38

38:                                               ; preds = %37, %32
  br label %39

39:                                               ; preds = %38
  %40 = load ptr, ptr %7, align 8, !tbaa !10
  %41 = getelementptr inbounds nuw %struct.pmix_list_item_t, ptr %40, i32 0, i32 1
  %42 = load ptr, ptr %41, align 8, !tbaa !27
  store ptr %42, ptr %7, align 8, !tbaa !10
  br label %18, !llvm.loop !99

43:                                               ; preds = %18
  %44 = load i8, ptr %8, align 1, !tbaa !8, !range !30, !noundef !31
  %45 = trunc i8 %44 to i1
  br i1 %45, label %47, label %46

46:                                               ; preds = %43
  store ptr null, ptr %3, align 8
  store i32 1, ptr %9, align 4
  br label %96

47:                                               ; preds = %43
  %48 = load ptr, ptr %4, align 8, !tbaa !78
  %49 = getelementptr inbounds nuw %struct.pmix_list_t, ptr %48, i32 0, i32 1
  %50 = getelementptr inbounds nuw %struct.pmix_list_item_t, ptr %49, i32 0, i32 1
  %51 = load ptr, ptr %50, align 8, !tbaa !98
  store ptr %51, ptr %7, align 8, !tbaa !10
  br label %52

52:                                               ; preds = %91, %47
  %53 = load ptr, ptr %7, align 8, !tbaa !10
  %54 = load ptr, ptr %4, align 8, !tbaa !78
  %55 = getelementptr inbounds nuw %struct.pmix_list_t, ptr %54, i32 0, i32 1
  %56 = icmp ne ptr %53, %55
  br i1 %56, label %57, label %95

57:                                               ; preds = %52
  %58 = load ptr, ptr %7, align 8, !tbaa !10
  %59 = getelementptr inbounds nuw %struct.pmix_nodeinfo_t, ptr %58, i32 0, i32 3
  %60 = load ptr, ptr %59, align 8, !tbaa !87
  %61 = icmp ne ptr null, %60
  br i1 %61, label %62, label %90

62:                                               ; preds = %57
  store i32 0, ptr %6, align 4, !tbaa !64
  br label %63

63:                                               ; preds = %86, %62
  %64 = load ptr, ptr %7, align 8, !tbaa !10
  %65 = getelementptr inbounds nuw %struct.pmix_nodeinfo_t, ptr %64, i32 0, i32 3
  %66 = load ptr, ptr %65, align 8, !tbaa !87
  %67 = load i32, ptr %6, align 4, !tbaa !64
  %68 = sext i32 %67 to i64
  %69 = getelementptr inbounds ptr, ptr %66, i64 %68
  %70 = load ptr, ptr %69, align 8, !tbaa !3
  %71 = icmp ne ptr null, %70
  br i1 %71, label %72, label %89

72:                                               ; preds = %63
  %73 = load ptr, ptr %7, align 8, !tbaa !10
  %74 = getelementptr inbounds nuw %struct.pmix_nodeinfo_t, ptr %73, i32 0, i32 3
  %75 = load ptr, ptr %74, align 8, !tbaa !87
  %76 = load i32, ptr %6, align 4, !tbaa !64
  %77 = sext i32 %76 to i64
  %78 = getelementptr inbounds ptr, ptr %75, i64 %77
  %79 = load ptr, ptr %78, align 8, !tbaa !3
  %80 = load ptr, ptr %5, align 8, !tbaa !3
  %81 = call i32 @strcmp(ptr noundef %79, ptr noundef %80) #12
  %82 = icmp eq i32 0, %81
  br i1 %82, label %83, label %85

83:                                               ; preds = %72
  %84 = load ptr, ptr %7, align 8, !tbaa !10
  store ptr %84, ptr %3, align 8
  store i32 1, ptr %9, align 4
  br label %96

85:                                               ; preds = %72
  br label %86

86:                                               ; preds = %85
  %87 = load i32, ptr %6, align 4, !tbaa !64
  %88 = add nsw i32 %87, 1
  store i32 %88, ptr %6, align 4, !tbaa !64
  br label %63, !llvm.loop !100

89:                                               ; preds = %63
  br label %90

90:                                               ; preds = %89, %57
  br label %91

91:                                               ; preds = %90
  %92 = load ptr, ptr %7, align 8, !tbaa !10
  %93 = getelementptr inbounds nuw %struct.pmix_list_item_t, ptr %92, i32 0, i32 1
  %94 = load ptr, ptr %93, align 8, !tbaa !27
  store ptr %94, ptr %7, align 8, !tbaa !10
  br label %52, !llvm.loop !101

95:                                               ; preds = %52
  store ptr null, ptr %3, align 8
  store i32 1, ptr %9, align 4
  br label %96

96:                                               ; preds = %95, %83, %46, %30, %12
  call void @llvm.lifetime.end.p0(i64 1, ptr %8) #11
  call void @llvm.lifetime.end.p0(i64 8, ptr %7) #11
  call void @llvm.lifetime.end.p0(i64 4, ptr %6) #11
  %97 = load ptr, ptr %3, align 8
  ret ptr %97
}