; Function Attrs: nofree nounwind memory(read, inaccessiblemem: none) uwtable
define ptr @pmix_gds_hash_check_nodename(ptr noundef readonly captures(address) %0, ptr noundef readonly captures(address_is_null) %1) local_unnamed_addr #7 {
  %3 = icmp eq ptr %1, null
  br i1 %3, label %.loopexit33, label %4

4:                                                ; preds = %2
  %5 = getelementptr inbounds nuw i8, ptr %0, i64 120
  %6 = getelementptr inbounds nuw i8, ptr %0, i64 240
  %.02240 = load ptr, ptr %6, align 8, !tbaa !3
  %.not41 = icmp eq ptr %.02240, %5
  br i1 %.not41, label %.loopexit33, label %.lr.ph

.lr.ph:                                           ; preds = %4, %11
  %.02243 = phi ptr [ %.022, %11 ], [ %.02240, %4 ]
  %.042 = phi i1 [ %spec.select, %11 ], [ false, %4 ]
  %7 = getelementptr inbounds nuw i8, ptr %.02243, i64 152
  %8 = load ptr, ptr %7, align 8, !tbaa !49
  %9 = tail call i32 @strcmp(ptr noundef nonnull dereferenceable(1) %8, ptr noundef nonnull dereferenceable(1) %1) #16
  %10 = icmp eq i32 %9, 0
  br i1 %10, label %.loopexit33, label %11

11:                                               ; preds = %.lr.ph
  %12 = getelementptr inbounds nuw i8, ptr %.02243, i64 160
  %13 = load ptr, ptr %12, align 8, !tbaa !50
  %.not32 = icmp ne ptr %13, null
  %spec.select = select i1 %.not32, i1 true, i1 %.042
  %14 = getelementptr inbounds nuw i8, ptr %.02243, i64 120
  %.022 = load ptr, ptr %14, align 8, !tbaa !3
  %.not = icmp eq ptr %.022, %5
  br i1 %.not, label %._crit_edge, label %.lr.ph, !llvm.loop !61

._crit_edge:                                      ; preds = %11
  br i1 %spec.select, label %.lr.ph51, label %.loopexit33

.lr.ph51:                                         ; preds = %._crit_edge, %.loopexit
  %.12349 = phi ptr [ %.123, %.loopexit ], [ %.02240, %._crit_edge ]
  %15 = getelementptr inbounds nuw i8, ptr %.12349, i64 160
  %16 = load ptr, ptr %15, align 8, !tbaa !50
  %.not30 = icmp eq ptr %16, null
  br i1 %.not30, label %.loopexit, label %.preheader

.preheader:                                       ; preds = %.lr.ph51
  %17 = load ptr, ptr %16, align 8, !tbaa !51
  %.not3144 = icmp eq ptr %17, null
  br i1 %.not3144, label %.loopexit, label %.lr.ph46

18:                                               ; preds = %.lr.ph46
  %indvars.iv.next = add nuw nsw i64 %indvars.iv, 1
  %19 = getelementptr inbounds nuw ptr, ptr %16, i64 %indvars.iv.next
  %20 = load ptr, ptr %19, align 8, !tbaa !51
  %.not31 = icmp eq ptr %20, null
  br i1 %.not31, label %.loopexit, label %.lr.ph46, !llvm.loop !62

.lr.ph46:                                         ; preds = %.preheader, %18
  %indvars.iv = phi i64 [ %indvars.iv.next, %18 ], [ 0, %.preheader ]
  %21 = phi ptr [ %20, %18 ], [ %17, %.preheader ]
  %22 = tail call i32 @strcmp(ptr noundef nonnull dereferenceable(1) %21, ptr noundef nonnull dereferenceable(1) %1) #16
  %23 = icmp eq i32 %22, 0
  br i1 %23, label %.loopexit33, label %18

.loopexit:                                        ; preds = %18, %.preheader, %.lr.ph51
  %24 = getelementptr inbounds nuw i8, ptr %.12349, i64 120
  %.123 = load ptr, ptr %24, align 8, !tbaa !3
  %.not29 = icmp eq ptr %.123, %5
  br i1 %.not29, label %.loopexit33, label %.lr.ph51, !llvm.loop !63

.loopexit33:                                      ; preds = %.lr.ph, %.loopexit, %.lr.ph46, %4, %._crit_edge, %2
  %.025 = phi ptr [ null, %2 ], [ null, %._crit_edge ], [ null, %4 ], [ %.12349, %.lr.ph46 ], [ null, %.loopexit ], [ %.02243, %.lr.ph ]
  ret ptr %.025
}